(dp0
S'Hotel'
p1
(dp2
S'79224f90-ae87-4194-975c-df0792159819'
p3
(ihotel
Hotel
p4
(dp5
S'price'
p6
I3803
sS'max_rooms'
p7
I9
sS'reserved_dates'
p8
(lp9
sS'location'
p10
VSingapore
p11
sS'stars'
p12
I5
sS'id'
p13
g3
sbsS'c9344963-dfaa-4aca-89fb-01eeb07aab19'
p14
(ihotel
Hotel
p15
(dp16
g6
I2986
sg7
I7
sg8
(lp17
sg10
VJordan
p18
sg12
I13
sg13
g14
sbsS'56621a85-50bf-4677-a304-72f0b2862a89'
p19
(ihotel
Hotel
p20
(dp21
g6
I655
sg7
I5
sg8
(lp22
sg10
VDjibouti
p23
sg12
I12
sg13
g19
sbsS'9a92adc2-3406-4a70-be3a-95714fff5e00'
p24
(ihotel
Hotel
p25
(dp26
g6
I865
sg7
I9
sg8
(lp27
sg10
VTurkmenistan
p28
sg12
I12
sg13
g24
sbsS'eddec52a-2cd6-4725-aef9-8804f879f405'
p29
(ihotel
Hotel
p30
(dp31
g6
I3292
sg7
I6
sg8
(lp32
sg10
VLithuania
p33
sg12
I5
sg13
g29
sbsS'946a825a-2cc6-46f6-94bc-b45431189d3e'
p34
(ihotel
Hotel
p35
(dp36
g6
I4246
sg7
I10
sg8
(lp37
sg10
VNauru
p38
sg12
I11
sg13
g34
sbsS'186b6c98-91c5-43d7-b249-0f358b10ed0b'
p39
(ihotel
Hotel
p40
(dp41
g6
I4727
sg7
I8
sg8
(lp42
sg10
VAntigua and Barbuda
p43
sg12
I1
sg13
g39
sbsS'4db3cfad-c5bc-4029-81c6-b107426bd2c1'
p44
(ihotel
Hotel
p45
(dp46
g6
I3556
sg7
I5
sg8
(lp47
sg10
VFrench Polynesia
p48
sg12
I9
sg13
g44
sbsS'532470c4-86ba-4727-a8ae-48726d9138c7'
p49
(ihotel
Hotel
p50
(dp51
g6
I578
sg7
I5
sg8
(lp52
sg10
VKiribati
p53
sg12
I7
sg13
g49
sbsS'a6afb8ed-dd9d-4e40-b87c-58a1bd2834e9'
p54
(ihotel
Hotel
p55
(dp56
g6
I1258
sg7
I10
sg8
(lp57
sg10
VAntarctica (the territory South of 60 deg S)
p58
sg12
I6
sg13
g54
sbsS'aaeb99cb-53a4-44b0-9175-25d922ad3bff'
p59
(ihotel
Hotel
p60
(dp61
g6
I570
sg7
I7
sg8
(lp62
sg10
VSaint Kitts and Nevis
p63
sg12
I7
sg13
g59
sbsS'3a39806c-f187-409f-b9e0-417a7c5b9ba0'
p64
(ihotel
Hotel
p65
(dp66
g6
I4784
sg7
I4
sg8
(lp67
sg10
VEthiopia
p68
sg12
I3
sg13
g64
sbsS'cf7f8ff3-0cf4-4674-a0c4-f809ec54023b'
p69
(ihotel
Hotel
p70
(dp71
g6
I277
sg7
I7
sg8
(lp72
sg10
VCongo
p73
sg12
I10
sg13
g69
sbsS'a1e384c2-f80d-4043-ade5-a527deb84782'
p74
(ihotel
Hotel
p75
(dp76
g6
I2575
sg7
I1
sg8
(lp77
sg10
VDenmark
p78
sg12
I3
sg13
g74
sbsS'c5c206f5-65c7-4b8b-affb-d927166c3ab6'
p79
(ihotel
Hotel
p80
(dp81
g6
I993
sg7
I3
sg8
(lp82
sg10
VColombia
p83
sg12
I2
sg13
g79
sbsS'34113557-c56f-4b8c-b92e-ed2fdcc76eca'
p84
(ihotel
Hotel
p85
(dp86
g6
I4551
sg7
I7
sg8
(lp87
sg10
VFrance
p88
sg12
I11
sg13
g84
sbsS'459c4254-50e5-40de-84ad-0a38372f599a'
p89
(ihotel
Hotel
p90
(dp91
g6
I4551
sg7
I5
sg8
(lp92
sg10
VKorea
p93
sg12
I9
sg13
g89
sbsS'31390c79-a633-4281-ae40-c54c3647c291'
p94
(ihotel
Hotel
p95
(dp96
g6
I4952
sg7
I7
sg8
(lp97
sg10
VIndia
p98
sg12
I10
sg13
g94
sbsS'033fc025-5f0c-469d-9175-49616f106279'
p99
(ihotel
Hotel
p100
(dp101
g6
I2460
sg7
I2
sg8
(lp102
sg10
VGabon
p103
sg12
I11
sg13
g99
sbsS'6084446d-ec7a-4c19-b97e-a933997f5987'
p104
(ihotel
Hotel
p105
(dp106
g6
I1417
sg7
I5
sg8
(lp107
sg10
VNiue
p108
sg12
I10
sg13
g104
sbsS'af53e3c4-ac70-46a2-89ea-9452fbc23c7f'
p109
(ihotel
Hotel
p110
(dp111
g6
I3225
sg7
I10
sg8
(lp112
sg10
VGermany
p113
sg12
I6
sg13
g109
sbsS'95e42cc4-4662-4376-b429-5086433ae03a'
p114
(ihotel
Hotel
p115
(dp116
g6
I4959
sg7
I9
sg8
(lp117
sg10
VCanada
p118
sg12
I8
sg13
g114
sbsS'c778b04c-467f-410b-8458-4ac6a5d6dc60'
p119
(ihotel
Hotel
p120
(dp121
g6
I3717
sg7
I3
sg8
(lp122
sg10
VKenya
p123
sg12
I11
sg13
g119
sbsS'1828b7ef-d94f-40a2-8b83-6bf34514dfbf'
p124
(ihotel
Hotel
p125
(dp126
g6
I1153
sg7
I4
sg8
(lp127
sg10
VKazakhstan
p128
sg12
I13
sg13
g124
sbsS'6fcc234c-8f05-45bb-ae8f-4e87c44aeb8a'
p129
(ihotel
Hotel
p130
(dp131
g6
I4609
sg7
I2
sg8
(lp132
sg10
VCook Islands
p133
sg12
I11
sg13
g129
sbsS'9e71bff2-50cf-4363-80fa-829a8b0cf9f9'
p134
(ihotel
Hotel
p135
(dp136
g6
I738
sg7
I10
sg8
(lp137
sg10
VTurks and Caicos Islands
p138
sg12
I13
sg13
g134
sbsS'75de46f0-62be-4918-aa92-0c9374ffdf59'
p139
(ihotel
Hotel
p140
(dp141
g6
I4098
sg7
I7
sg8
(lp142
sg10
VNepal
p143
sg12
I14
sg13
g139
sbsS'f4c3e1b6-1051-4e4d-b87b-6d6956e4b2f4'
p144
(ihotel
Hotel
p145
(dp146
g6
I3659
sg7
I3
sg8
(lp147
sg10
VPeru
p148
sg12
I7
sg13
g144
sbsS'ec9e3820-586b-4034-adfe-c65c8c522c51'
p149
(ihotel
Hotel
p150
(dp151
g6
I265
sg7
I9
sg8
(lp152
sg10
VTajikistan
p153
sg12
I13
sg13
g149
sbsS'2c8ca609-52e6-477d-be17-ebe55c8da99d'
p154
(ihotel
Hotel
p155
(dp156
g6
I4499
sg7
I7
sg8
(lp157
sg10
VLatvia
p158
sg12
I3
sg13
g154
sbsS'b5a7e1be-683a-4ca5-8147-e62bb70d1361'
p159
(ihotel
Hotel
p160
(dp161
g6
I1572
sg7
I3
sg8
(lp162
sg10
VDominica
p163
sg12
I8
sg13
g159
sbsS'92ccb408-a1da-4c59-ad1f-ea7b28aa98fb'
p164
(ihotel
Hotel
p165
(dp166
g6
I159
sg7
I5
sg8
(lp167
sg10
VNiue
p168
sg12
I8
sg13
g164
sbsS'69d83c78-66b8-47a6-ade5-e11a02bc7d3a'
p169
(ihotel
Hotel
p170
(dp171
g6
I3564
sg7
I10
sg8
(lp172
sg10
VAlbania
p173
sg12
I6
sg13
g169
sbsS'ec661f5c-1009-4f76-8ad0-daddbc0409e1'
p174
(ihotel
Hotel
p175
(dp176
g6
I2378
sg7
I9
sg8
(lp177
sg10
VMontenegro
p178
sg12
I1
sg13
g174
sbsS'114c8804-1207-46a8-9836-6a26690addba'
p179
(ihotel
Hotel
p180
(dp181
g6
I1077
sg7
I3
sg8
(lp182
sg10
VMyanmar
p183
sg12
I4
sg13
g179
sbsS'fff7ed6c-6e85-4dbe-a613-50043996c44c'
p184
(ihotel
Hotel
p185
(dp186
g6
I4339
sg7
I4
sg8
(lp187
sg10
VMaldives
p188
sg12
I12
sg13
g184
sbsS'7c3b9f76-21f6-4ea0-905d-4346f6a6c6e3'
p189
(ihotel
Hotel
p190
(dp191
g6
I233
sg7
I1
sg8
(lp192
sg10
VBolivia
p193
sg12
I7
sg13
g189
sbsS'a5761e28-532d-4e44-b9dc-c715e00bbc5c'
p194
(ihotel
Hotel
p195
(dp196
g6
I4088
sg7
I1
sg8
(lp197
sg10
VYemen
p198
sg12
I9
sg13
g194
sbsS'07161fbe-45e6-490a-a723-0b95a10a6f3a'
p199
(ihotel
Hotel
p200
(dp201
g6
I2358
sg7
I10
sg8
(lp202
sg10
VVenezuela
p203
sg12
I13
sg13
g199
sbss(ihotel
Hotel
p204
(dp205
g6
I1295
sg7
I1
sg8
(lp206
sg10
VEl Salvador
p207
sg12
I7
sg13
S'520162f6-9999-4dad-8078-3e39459e4468'
p208
sb(dp209
g208
g204
ss.